; Function Attrs: nounwind uwtable
define ptr @l_List_foldl___at_Lean_Elab_InfoTree_hoverableInfoAt_x3f___spec__16(ptr noundef %0, ptr readnone captures(none) %1, ptr noundef %2, ptr noundef %3) local_unnamed_addr #0 {
  %5 = ptrtoint ptr %0 to i64
  %6 = and i64 %5, 1
  %.not52 = icmp eq i64 %6, 0
  br label %lean_dec.exit21

lean_dec.exit21:                                  ; preds = %lean_dec.exit21.backedge, %4
  %.019 = phi ptr [ %3, %4 ], [ %36, %lean_dec.exit21.backedge ]
  %.0 = phi ptr [ %2, %4 ], [ %.0.be, %lean_dec.exit21.backedge ]
  %7 = ptrtoint ptr %.019 to i64
  %8 = and i64 %7, 1
  %.not.i34 = icmp eq i64 %8, 0
  br i1 %.not.i34, label %12, label %9

9:                                                ; preds = %lean_dec.exit21
  %10 = lshr i64 %7, 1
  %11 = trunc i64 %10 to i32
  br label %lean_obj_tag.exit

12:                                               ; preds = %lean_dec.exit21
  %13 = getelementptr i8, ptr %.019, i64 4
  %.val.i = load i32, ptr %13, align 4
  %14 = lshr i32 %.val.i, 24
  br label %lean_obj_tag.exit

lean_obj_tag.exit:                                ; preds = %9, %12
  %.0.i = phi i32 [ %11, %9 ], [ %14, %12 ]
  %15 = icmp eq i32 %.0.i, 0
  br i1 %15, label %16, label %24

16:                                               ; preds = %lean_obj_tag.exit
  br i1 %.not52, label %17, label %lean_dec.exit23

17:                                               ; preds = %16
  %18 = load i32, ptr %0, align 4, !tbaa !4
  %19 = icmp sgt i32 %18, 1
  br i1 %19, label %20, label %22, !prof !15

20:                                               ; preds = %17
  %21 = add nsw i32 %18, -1
  store i32 %21, ptr %0, align 4, !tbaa !4
  br label %lean_dec.exit23

22:                                               ; preds = %17
  %.not.i = icmp eq i32 %18, 0
  br i1 %.not.i, label %lean_dec.exit23, label %23

23:                                               ; preds = %22
  tail call void @lean_dec_ref_cold(ptr noundef nonnull %0) #7
  br label %lean_dec.exit23

lean_dec.exit23:                                  ; preds = %23, %22, %20, %16
  ret ptr %.0

24:                                               ; preds = %lean_obj_tag.exit
  %25 = getelementptr inbounds nuw i8, ptr %.019, i64 8
  %26 = load ptr, ptr %25, align 8, !tbaa !9
  %27 = ptrtoint ptr %26 to i64
  %28 = and i64 %27, 1
  %.not = icmp eq i64 %28, 0
  br i1 %.not, label %29, label %lean_inc.exit27

29:                                               ; preds = %24
  %.val.i35 = load i32, ptr %26, align 4, !tbaa !4
  %30 = icmp sgt i32 %.val.i35, 0
  br i1 %30, label %31, label %33, !prof !15

31:                                               ; preds = %29
  %32 = add nuw i32 %.val.i35, 1
  store i32 %32, ptr %26, align 4, !tbaa !4
  br label %lean_inc.exit27

33:                                               ; preds = %29
  %.not.i36 = icmp eq i32 %.val.i35, 0
  br i1 %.not.i36, label %lean_inc.exit27, label %34

34:                                               ; preds = %33
  tail call void @lean_inc_ref_cold(ptr noundef nonnull %26) #7
  br label %lean_inc.exit27

lean_inc.exit27:                                  ; preds = %34, %33, %31, %24
  %35 = getelementptr inbounds nuw i8, ptr %.019, i64 16
  %36 = load ptr, ptr %35, align 8, !tbaa !9
  %37 = ptrtoint ptr %36 to i64
  %38 = and i64 %37, 1
  %.not49 = icmp eq i64 %38, 0
  br i1 %.not49, label %39, label %lean_inc.exit26

39:                                               ; preds = %lean_inc.exit27
  %.val.i37 = load i32, ptr %36, align 4, !tbaa !4
  %40 = icmp sgt i32 %.val.i37, 0
  br i1 %40, label %41, label %43, !prof !15

41:                                               ; preds = %39
  %42 = add nuw i32 %.val.i37, 1
  store i32 %42, ptr %36, align 4, !tbaa !4
  br label %lean_inc.exit26

43:                                               ; preds = %39
  %.not.i38 = icmp eq i32 %.val.i37, 0
  br i1 %.not.i38, label %lean_inc.exit26, label %44

44:                                               ; preds = %43
  tail call void @lean_inc_ref_cold(ptr noundef nonnull %36) #7
  br label %lean_inc.exit26

lean_inc.exit26:                                  ; preds = %44, %43, %41, %lean_inc.exit27
  br i1 %.not.i34, label %45, label %lean_dec.exit22

45:                                               ; preds = %lean_inc.exit26
  %46 = load i32, ptr %.019, align 4, !tbaa !4
  %47 = icmp sgt i32 %46, 1
  br i1 %47, label %48, label %50, !prof !15

48:                                               ; preds = %45
  %49 = add nsw i32 %46, -1
  store i32 %49, ptr %.019, align 4, !tbaa !4
  br label %lean_dec.exit22

50:                                               ; preds = %45
  %.not.i28 = icmp eq i32 %46, 0
  br i1 %.not.i28, label %lean_dec.exit22, label %51

51:                                               ; preds = %50
  tail call void @lean_dec_ref_cold(ptr noundef nonnull %.019) #7
  br label %lean_dec.exit22

lean_dec.exit22:                                  ; preds = %51, %50, %48, %lean_inc.exit26
  br i1 %.not, label %52, label %lean_inc.exit25

52:                                               ; preds = %lean_dec.exit22
  %.val.i40 = load i32, ptr %26, align 4, !tbaa !4
  %53 = icmp sgt i32 %.val.i40, 0
  br i1 %53, label %54, label %56, !prof !15

54:                                               ; preds = %52
  %55 = add nuw i32 %.val.i40, 1
  store i32 %55, ptr %26, align 4, !tbaa !4
  br label %lean_inc.exit25

56:                                               ; preds = %52
  %.not.i41 = icmp eq i32 %.val.i40, 0
  br i1 %.not.i41, label %lean_inc.exit25, label %57

57:                                               ; preds = %56
  tail call void @lean_inc_ref_cold(ptr noundef nonnull %26) #7
  br label %lean_inc.exit25

lean_inc.exit25:                                  ; preds = %57, %56, %54, %lean_dec.exit22
  %58 = ptrtoint ptr %.0 to i64
  %59 = and i64 %58, 1
  %.not51 = icmp eq i64 %59, 0
  br i1 %.not51, label %60, label %lean_inc.exit24

60:                                               ; preds = %lean_inc.exit25
  %.val.i43 = load i32, ptr %.0, align 4, !tbaa !4
  %61 = icmp sgt i32 %.val.i43, 0
  br i1 %61, label %62, label %64, !prof !15

62:                                               ; preds = %60
  %63 = add nuw i32 %.val.i43, 1
  store i32 %63, ptr %.0, align 4, !tbaa !4
  br label %lean_inc.exit24

64:                                               ; preds = %60
  %.not.i44 = icmp eq i32 %.val.i43, 0
  br i1 %.not.i44, label %lean_inc.exit24, label %65

65:                                               ; preds = %64
  tail call void @lean_inc_ref_cold(ptr noundef nonnull %.0) #7
  br label %lean_inc.exit24

lean_inc.exit24:                                  ; preds = %65, %64, %62, %lean_inc.exit25
  br i1 %.not52, label %66, label %lean_inc.exit

66:                                               ; preds = %lean_inc.exit24
  %.val.i46 = load i32, ptr %0, align 4, !tbaa !4
  %67 = icmp sgt i32 %.val.i46, 0
  br i1 %67, label %68, label %70, !prof !15

68:                                               ; preds = %66
  %69 = add nuw i32 %.val.i46, 1
  store i32 %69, ptr %0, align 4, !tbaa !4
  br label %lean_inc.exit

70:                                               ; preds = %66
  %.not.i47 = icmp eq i32 %.val.i46, 0
  br i1 %.not.i47, label %lean_inc.exit, label %71

71:                                               ; preds = %70
  tail call void @lean_inc_ref_cold(ptr noundef nonnull %0) #7
  br label %lean_inc.exit

lean_inc.exit:                                    ; preds = %71, %70, %68, %lean_inc.exit24
  %72 = tail call zeroext i8 @l_Ord_instDecidableRelLe___rarg(ptr noundef %0, ptr noundef %.0, ptr noundef %26) #7
  %73 = icmp eq i8 %72, 0
  br i1 %73, label %74, label %82

74:                                               ; preds = %lean_inc.exit
  br i1 %.not, label %75, label %lean_dec.exit21.backedge

75:                                               ; preds = %74
  %76 = load i32, ptr %26, align 4, !tbaa !4
  %77 = icmp sgt i32 %76, 1
  br i1 %77, label %78, label %80, !prof !15

78:                                               ; preds = %75
  %79 = add nsw i32 %76, -1
  store i32 %79, ptr %26, align 4, !tbaa !4
  br label %lean_dec.exit21.backedge

80:                                               ; preds = %75
  %.not.i30 = icmp eq i32 %76, 0
  br i1 %.not.i30, label %lean_dec.exit21.backedge, label %81

81:                                               ; preds = %80
  tail call void @lean_dec_ref_cold(ptr noundef nonnull %26) #7
  br label %lean_dec.exit21.backedge

82:                                               ; preds = %lean_inc.exit
  br i1 %.not51, label %83, label %lean_dec.exit21.backedge

lean_dec.exit21.backedge:                         ; preds = %82, %86, %88, %89, %74, %78, %80, %81
  %.0.be = phi ptr [ %26, %82 ], [ %26, %86 ], [ %26, %88 ], [ %26, %89 ], [ %.0, %74 ], [ %.0, %78 ], [ %.0, %80 ], [ %.0, %81 ]
  br label %lean_dec.exit21

83:                                               ; preds = %82
  %84 = load i32, ptr %.0, align 4, !tbaa !4
  %85 = icmp sgt i32 %84, 1
  br i1 %85, label %86, label %88, !prof !15

86:                                               ; preds = %83
  %87 = add nsw i32 %84, -1
  store i32 %87, ptr %.0, align 4, !tbaa !4
  br label %lean_dec.exit21.backedge

88:                                               ; preds = %83
  %.not.i32 = icmp eq i32 %84, 0
  br i1 %.not.i32, label %lean_dec.exit21.backedge, label %89

89:                                               ; preds = %88
  tail call void @lean_dec_ref_cold(ptr noundef nonnull %.0) #7
  br label %lean_dec.exit21.backedge
}